; Function Attrs: mustprogress nofree nounwind uwtable
define internal noundef i32 @_ZL17xdrstdio_getbytesP3XDRPcj(ptr nocapture noundef readonly %0, ptr nocapture noundef %1, i32 noundef %2) #6 {
  %.not = icmp eq i32 %2, 0
  br i1 %.not, label %9, label %4

4:                                                ; preds = %3
  %5 = sext i32 %2 to i64
  %6 = getelementptr inbounds i8, ptr %0, i64 24
  %7 = load ptr, ptr %6, align 8
  %8 = tail call i64 @fread(ptr noundef %1, i64 noundef %5, i64 noundef 1, ptr noundef %7)
  %.not5 = icmp eq i64 %8, 1
  br i1 %.not5, label %9, label %10

9:                                                ; preds = %4, %3
  br label %10

10:                                               ; preds = %4, %9
  %.0 = phi i32 [ 1, %9 ], [ 0, %4 ]
  ret i32 %.0
}